; Function Attrs: nounwind sspstrong uwtable
define internal fastcc range(i32 -2147483648, 1) i32 @vmdk_read_cid(ptr noundef readonly captures(none) %bs, i32 noundef range(i32 0, 2) %parent, ptr noundef writeonly captures(none) %pcid) unnamed_addr #0 {
entry:
  %cid = alloca i32, align 4
  %opaque = getelementptr inbounds nuw i8, ptr %bs, i64 24
  %0 = load ptr, ptr %opaque, align 8
  %call = tail call noalias dereferenceable_or_null(10240) ptr @g_malloc0(i64 noundef 10240) #18
  %file = getelementptr inbounds nuw i8, ptr %bs, i64 16840
  %1 = load ptr, ptr %file, align 8
  %desc_offset = getelementptr inbounds nuw i8, ptr %0, i64 48
  %2 = load i64, ptr %desc_offset, align 8
  %call1 = tail call i32 @bdrv_pread(ptr noundef %1, i64 noundef %2, i64 noundef 10240, ptr noundef %call, i32 noundef 0) #15
  %cmp = icmp slt i32 %call1, 0
  br i1 %cmp, label %out, label %if.end

if.end:                                           ; preds = %entry
  %tobool.not = icmp eq i32 %parent, 0
  %.str.87..str.86 = select i1 %tobool.not, ptr @.str.87, ptr @.str.86
  %arrayidx = getelementptr i8, ptr %call, i64 10239
  store i8 0, ptr %arrayidx, align 1
  %call4 = tail call ptr @strstr(ptr noundef nonnull dereferenceable(1) %call, ptr noundef nonnull dereferenceable(1) %.str.87..str.86) #19
  %cmp5 = icmp eq ptr %call4, null
  br i1 %cmp5, label %out, label %if.end7

if.end7:                                          ; preds = %if.end
  %. = select i1 %tobool.not, i64 4, i64 10
  %add.ptr = getelementptr i8, ptr %call4, i64 %.
  %call8 = call i32 (ptr, ptr, ...) @__isoc99_sscanf(ptr noundef %add.ptr, ptr noundef nonnull @.str.88, ptr noundef nonnull %cid) #15
  %cmp9.not = icmp eq i32 %call8, 1
  br i1 %cmp9.not, label %if.end11, label %out

if.end11:                                         ; preds = %if.end7
  %3 = load i32, ptr %cid, align 4
  store i32 %3, ptr %pcid, align 4
  br label %out

out:                                              ; preds = %if.end7, %if.end, %entry, %if.end11
  %ret.0 = phi i32 [ %call1, %entry ], [ 0, %if.end11 ], [ -22, %if.end ], [ -22, %if.end7 ]
  call void @g_free(ptr noundef %call) #15
  ret i32 %ret.0
}